(dp0
(S'merge_after'
p1
F0.3
tp2
((lp3
F0.002304227618451648
aF0.0045612973343748114
aF0.0073915989162769155
aF0.008377308907259212
aF0.011429360955705624
aF0.012910771100163934
aF0.01532111075650106
aF0.018100906779473225
aF0.018620170772743597
aF0.02518196563018983
aF0.025904267489129804
aF0.03248931260464849
aF0.035448765835705144
aF0.04039788625238627
aF0.04044497548534679
aF0.04456979590420089
aF0.046608342195135204
aF0.05038036524182808
aF0.053344726600119456
aF0.05758010990925613
aF0.06008503786885246
aF0.06525906178436129
aF0.06726131024669595
aF0.07009375972816785
aF0.0795930147946571
aF0.09144716901423644
aF0.08686938847169541
aF0.10260388397764282
aF0.08732105170013726
aF0.1042725282440579
aF0.09667219075009396
aF0.10648417233779481
aF0.10131620818376369
aF0.10449780913341332
aF0.10352476425432047
aF0.10301338396821609
aF0.10607975276078024
aF0.10719029176675973
aF0.10653579603483071
aF0.10184954740957443
aF224.82
tp4
s(S'merge_during'
p5
F0.05
tp6
((lp7
F0.0023528002971459354
aF0.003708713767550935
aF0.011195541681212881
aF0.0017045823763419626
aF0.004096675969828689
aF0.005224975179373817
aF0.003898477257722621
aF0.005061933625144694
aF0.014350506145614533
aF0.0063031379997508415
aF0.005388075080465353
aF0.012161736684472936
aF0.002428241920608159
aF0.0029778634740018775
aF0.003727301665686078
aF0.014054517925052726
aF0.0036111939584583005
aF0.0030018350764581102
aF0.012796967451478883
aF0.004059051432843417
aF0.012981608699289802
aF0.005896836073835933
aF0.0046632998689768316
aF0.0057598107465353715
aF0.004363354566142322
aF0.0038781518927547753
aF0.004939845722876776
aF0.009427378697230643
aF0.017770589345525792
aF0.006836517701463054
aF0.00490212378488096
aF0.006996835145646032
aF0.0035382190692270564
aF0.004444346426309857
aF0.011608019198135353
aF0.004698247378342444
aF0.003690028029255827
aF0.004219040025129136
aF0.008313897052917999
aF0.0035727257383400867
aF488.22
tp8
s(g5
F0.3
tp9
((lp10
F0.0023827152348526383
aF0.003764272827880326
aF0.01118944772670717
aF0.0016746527750712622
aF0.003978678601348325
aF0.005399820524545084
aF0.0037648657873900074
aF0.005449499945429973
aF0.014403999709780436
aF0.005900737937028727
aF0.0060958061798251405
aF0.011781106777441425
aF0.002307463748580006
aF0.0036885873734646265
aF0.0021543566773142486
aF0.015948081686086298
aF0.0036680149222615976
aF0.0021709645520755242
aF0.01677168974669753
aF0.0038950808825239753
aF0.01439031651512145
aF0.00251595039187486
aF0.0024974914445377444
aF0.007421237898518888
aF0.005449913659103524
aF0.004999203697617996
aF0.0027733076650722846
aF0.014645305701427387
aF0.01619368165700813
aF0.005824455395734763
aF0.010757274547807538
aF0.005920949644254364
aF0.0031637763526200244
aF0.002443692752921258
aF0.00349827570794605
aF0.004042548605547094
aF0.0045212166585430974
aF0.006826158572420036
aF0.004449958234357562
aF0.004463745541251895
aF1286.69
tp11
s(g5
I1
tp12
((lp13
F0.0023817514240253505
aF0.0014617192167392678
aF0.0013440910599606592
aF0.0015864931749941412
aF0.001681921548303957
aF0.002503758095725787
aF0.0019255973137097934
aF0.002694895521603578
aF0.0020740052927969168
aF0.0018808775837185704
aF0.001627053917685449
aF0.0027186812976360965
aF0.002502609973364481
aF0.0029922160977109403
aF0.0036687094318939187
aF0.0015443555222827492
aF0.0016774237423550847
aF0.001536948751755292
aF0.0017180114012467817
aF0.0015714445333296764
aF0.0015594601524473303
aF0.001398180276678688
aF0.0016465774740429117
aF0.0015600064259899764
aF0.0014859085742238729
aF0.0020088456644494473
aF0.0014293861395134422
aF0.005060770357490084
aF0.0021302371938254927
aF0.0025663103902002454
aF0.0035082665487333677
aF0.004516181220190503
aF0.004953963239365517
aF0.005246064950135242
aF0.005293986565841972
aF0.0049765548519944735
aF0.0051915188600969555
aF0.003455948993838245
aF0.003493537346416005
aF0.0035979837030140948
aF4064.72
tp14
s(g5
F0.75
tp15
((lp16
F0.002327982413283478
aF0.0037277667985109856
aF0.011254270719774528
aF0.001667829198875436
aF0.004024342721285169
aF0.0054560145422976585
aF0.0036378128805531307
aF0.005522513558994789
aF0.014261015393075031
aF0.006206492942962284
aF0.005653213899869079
aF0.01185658718527397
aF0.002369941400009316
aF0.0034120187072086386
aF0.00219052650442906
aF0.006133121612873525
aF0.006343929467350394
aF0.020989453397496232
aF0.003131088271826139
aF0.0026852475683099763
aF0.021090934617787525
aF0.005658874712134165
aF0.002719062689933317
aF0.0034453194179528326
aF0.005157327143865595
aF0.008378757625570785
aF0.007620870254365742
aF0.010315248149706174
aF0.013773474912473585
aF0.006887630217467556
aF0.003382704273149446
aF0.00565986985716376
aF0.0038585329112772425
aF0.004979704875382336
aF0.004340793922688756
aF0.0031934125889484214
aF0.0054362498513919125
aF0.005867833185287126
aF0.004485786232906582
aF0.0039987117107352825
aF3104.24
tp17
s(g1
I1
tp18
((lp19
F0.002313653913202823
aF0.0017522960927544508
aF0.0015606149163624357
aF0.001956158486835152
aF0.0017475020721357181
aF0.0020912817470103654
aF0.0016931029898592303
aF0.0038024638849577727
aF0.0018245609338365962
aF0.0018154804315056138
aF0.0017052512855219183
aF0.0027420188272481013
aF0.0017903719059859469
aF0.008899576499472586
aF0.0020126875321483427
aF0.002364069968162875
aF0.0021127002868568585
aF0.004170529128029566
aF0.004340608999653876
aF0.0027415905469490294
aF0.002794258225441703
aF0.002156289139489367
aF0.0031122471441369826
aF0.0020011981565974104
aF0.0018266993056925268
aF0.007006965795078958
aF0.001952771938942486
aF0.015785315804128924
aF0.004001784852428484
aF0.00362414906396822
aF0.0020937332933762746
aF0.0020367452475751535
aF0.0017964231534772154
aF0.0020222376581348995
aF0.002011757287352655
aF0.002071687041633227
aF0.0017290101446854414
aF0.0020427777978419617
aF0.0021569045791982456
aF0.0019973599887312867
aF736.56
tp20
s(g1
F0.05
tp21
((lp22
F0.002317388923135394
aF0.006464949968575891
aF0.008978062838576344
aF0.009555622157407765
aF0.012621366098865203
aF0.013813248530764476
aF0.01644573080930403
aF0.018962992434316723
aF0.01966420892718862
aF0.02621195558294076
aF0.026627372391002824
aF0.03361898187104613
aF0.03627198091210915
aF0.0403991552018688
aF0.041378562633233196
aF0.04488399493168405
aF0.04753136039363387
aF0.05024502039354138
aF0.05505388344296305
aF0.056904852968392435
aF0.06147483524463147
aF0.06670757359045305
aF0.07229294892749683
aF0.07188370372939804
aF0.08182218733299035
aF0.09517868962697387
aF0.09193696823266181
aF0.10258116116263274
aF0.09228078554941825
aF0.10521743450658692
aF0.09911795339565875
aF0.10656206016855387
aF0.10218808994789925
aF0.10380145878230326
aF0.10326229351494733
aF0.10638671457762222
aF0.10962124838219667
aF0.1074658271337236
aF0.1082361124485886
aF0.10428513797259738
aF55.85
tp23
s(g1
F0.5
tp24
((lp25
F0.0023056640949220253
aF0.004334013099763153
aF0.007325056955912231
aF0.0081593839264511
aF0.011263826267307217
aF0.012734160675299797
aF0.015245355035004376
aF0.017822084042467826
aF0.01841719385911285
aF0.024856500385345034
aF0.025786336436639263
aF0.03235682782165191
aF0.03559381090608899
aF0.039812669423314254
aF0.03995967673372404
aF0.044430868132804634
aF0.046342925048233084
aF0.050229290974353774
aF0.05398743762510516
aF0.05654094215448369
aF0.059430509395602966
aF0.06437705705743825
aF0.06849659842120592
aF0.07313786292497601
aF0.07826764233903334
aF0.09275369539269972
aF0.08602088848332032
aF0.10226973022439062
aF0.08639022428828798
aF0.10109078027617674
aF0.09602866082379166
aF0.10467897936175247
aF0.09979174230420797
aF0.10133359599600987
aF0.1004605616532941
aF0.10304435622726997
aF0.10769220045485331
aF0.1057629574149308
aF0.10533783896400746
aF0.10269212018982105
aF400.78
tp26
s(g5
F0.5
tp27
((lp28
F0.0023443385621172977
aF0.003740556177010008
aF0.01096380390054765
aF0.0016565125911814059
aF0.004188960733789606
aF0.005051352346730714
aF0.003906461614817383
aF0.005459025487545388
aF0.014182337297095227
aF0.005911031288199844
aF0.006286890950540594
aF0.011594126320012391
aF0.002069509376368998
aF0.004729492162810918
aF0.00173953552282485
aF0.015674907200339136
aF0.0031837403178761052
aF0.012265040061254631
aF0.00583644360100052
aF0.0025746243438101533
aF0.002144062955779464
aF0.006797983546389537
aF0.00851040162286827
aF0.006122385540678508
aF0.0042783890349410705
aF0.003233241587634143
aF0.002882760277375931
aF0.005844387720149471
aF0.016630510826151277
aF0.005110055974308
aF0.005114642606251851
aF0.006580295352640781
aF0.006405779929980387
aF0.010859359917781638
aF0.0029913091227882437
aF0.010894338679296664
aF0.0064147379769988935
aF0.0029046819288489284
aF0.003601818722854099
aF0.0020555406575712685
aF2316.45
tp29
s(g1
F0.1
tp30
((lp31
F0.0023186111511028585
aF0.005462688225896143
aF0.008020716227825932
aF0.008836897369952308
aF0.011873275657446968
aF0.013352704898797193
aF0.01575554153230836
aF0.01843025517365461
aF0.0190101059968539
aF0.02529809641034532
aF0.02600875819658361
aF0.032409592629148554
aF0.03568472740517827
aF0.039790982966531475
aF0.04064452136757183
aF0.04434530124527054
aF0.04642442750174895
aF0.05045370065354626
aF0.05364923009007512
aF0.056869489224144414
aF0.060602653565343556
aF0.06502169387400679
aF0.06832565084740225
aF0.07325907541694028
aF0.08173088910523693
aF0.09474824228714206
aF0.0869444100886426
aF0.10405125556330416
aF0.09021916962108224
aF0.10163256745431631
aF0.09862298474096867
aF0.10664182447399535
aF0.10279523307005169
aF0.10536524082167224
aF0.10207089264421065
aF0.10530687451410838
aF0.10839939142904631
aF0.10883120902470064
aF0.10687059747693713
aF0.1070106834129799
aF74.21
tp32
s(g5
F0.1
tp33
((lp34
F0.0023084918865074913
aF0.0036685185408815157
aF0.010959854879721329
aF0.0016664769737458791
aF0.00404042946212831
aF0.00501964183860853
aF0.0040021474785462705
aF0.005187178617236806
aF0.014149969504831633
aF0.005595123065388101
aF0.006732438013790875
aF0.011350174446894202
aF0.0020307159852959934
aF0.004999752552961402
aF0.0016440279176305438
aF0.014980263439725916
aF0.0032170657249284006
aF0.01223590129967929
aF0.005763819501849304
aF0.002596687204909116
aF0.002485417787338762
aF0.006794610158274228
aF0.008646541288497933
aF0.005801542763148692
aF0.004440389295676605
aF0.002789844283136129
aF0.004048974806567753
aF0.006152482330327731
aF0.017008575042646776
aF0.00482209230482354
aF0.0052913531871364924
aF0.006826534850318332
aF0.008528916764461042
aF0.00530335662972512
aF0.0031728825795277
aF0.008021415651367636
aF0.013109809787756199
aF0.005414358256336376
aF0.003975449428276635
aF0.0036971879591651676
aF698.07
tp35
s(g5
F0.2
tp36
((lp37
F0.0023175799456863254
aF0.0038387682228282764
aF0.010995582815562477
aF0.0016915464037689492
aF0.003863510647581059
aF0.005247780975955039
aF0.003992067261462856
aF0.005177728081160601
aF0.014195458297381195
aF0.005987697154849976
aF0.006091636301360001
aF0.011784896137341041
aF0.0020259649268255463
aF0.004416532167387009
aF0.0018122137336450098
aF0.01604458709228707
aF0.003377527285126518
aF0.010893122739549274
aF0.0038876026230149946
aF0.007931981455105232
aF0.004468871022713673
aF0.008935491420016196
aF0.0028319726251072857
aF0.005060512195776959
aF0.0042125988551919525
aF0.003949444433967421
aF0.004409227343569094
aF0.009493669248988828
aF0.017090529770188663
aF0.007573476140931476
aF0.004165373212003373
aF0.0068587214730785415
aF0.003369817825309842
aF0.0054247325930752285
aF0.014009008039482556
aF0.004746308419895733
aF0.006482117721428518
aF0.0023506997901633067
aF0.0025115884864887403
aF0.00346137493901335
aF988.85
tp38
s(g1
F0.75
tp39
((lp40
F0.002314022035116676
aF0.004189452397044766
aF0.007208976811935668
aF0.007963885579332605
aF0.011179304869264292
aF0.01253570749012465
aF0.015221057715897763
aF0.01777994076024506
aF0.01843228079435456
aF0.024833658765688903
aF0.025906794841991612
aF0.032173657125354124
aF0.03594732171040974
aF0.0402508837300522
aF0.03970749405868899
aF0.04496070150077191
aF0.04527583365502372
aF0.05055961757961665
aF0.05327268721823957
aF0.05689759939539952
aF0.05829837852953762
aF0.06402821814227057
aF0.06693523815886682
aF0.07369663866540813
aF0.07858887742535221
aF0.09138824534091483
aF0.0833522391678055
aF0.10309214577500303
aF0.08284117102060227
aF0.1036550257500326
aF0.0923259456008612
aF0.1059271600060096
aF0.09681686031549697
aF0.10451273902327932
aF0.0979749895378305
aF0.10439092363076574
aF0.10351131116260463
aF0.11109931729254756
aF0.1027092908033829
aF0.10199361907814132
aF640.67
tp41
s(g1
F0.2
tp42
((lp43
F0.002310267439258332
aF0.0048401517312471965
aF0.007636077906726466
aF0.008403596387934111
aF0.01162058779649775
aF0.013004939185018377
aF0.01547169449696026
aF0.01807418101704182
aF0.01891946333563022
aF0.025089346831086115
aF0.026185291755658122
aF0.03233353579250744
aF0.03575524572179132
aF0.04021419011913255
aF0.03983431834962102
aF0.043999346094224484
aF0.045895679747917716
aF0.05020384097133184
aF0.05275747256356474
aF0.057203505967461196
aF0.058883242186263986
aF0.06476253050664146
aF0.06739122806983328
aF0.06968702542446292
aF0.07802701201423416
aF0.09401269831955511
aF0.08437800785883223
aF0.1032172314815121
aF0.08286843498858262
aF0.10411189666304416
aF0.09257105464655448
aF0.10670562114305324
aF0.09820325801135495
aF0.10191858951768129
aF0.09841342621687603
aF0.1047042596261737
aF0.10245330412288106
aF0.10703941961163807
aF0.10253169550193937
aF0.10136570139688028
aF153.07
tp44
s.