(dp1
(S'merge_after'
p2
F0.0001
tp3
((lp4
F0.0032733019011655148
aF0.12159248085326085
aF0.10315073998889406
aF0.18296811217610545
aF0.1646480963227214
aF0.17602188773347896
aF0.21916750075969826
aF0.19154782886029662
aF0.36246935459445506
aF0.17422907895113329
aF7.1800520420074463
tp5
s(S'merge_during'
p6
F0.0001
tp7
((lp8
F0.0059849674703172815
aF0.0090642595034220175
aF0.010178430229809935
aF0.0077537025560862139
aF0.007823364245069556
aF0.0076433110776746383
aF0.0054514288885373074
aF0.0051941760840993768
aF0.006545730370214168
aF0.0074428857945765354
aF20.111418008804321
tp9
s(g6
I1
tp10
((lp11
F0.0052577668240000016
aF0.0016044338314163023
aF0.0014163037278474904
aF0.001825028742800089
aF0.0019031224531571482
aF0.0035275142565466397
aF0.0024489174293152683
aF0.0062611618142831673
aF0.0024769341162647483
aF0.0020466816082819277
aF302.09955501556396
tp12
s(g6
F0.001
tp13
((lp14
F0.0025748100756336472
aF0.0071312080620338824
aF0.021180602499251407
aF0.0037269673290844991
aF0.0164770119285765
aF0.0039685202925051188
aF0.009733636638518393
aF0.0036336061362487087
aF0.0076588573240428783
aF0.0073009926150021803
aF20.678919792175293
tp15
s(g2
I1
tp16
((lp17
F0.0023947496834199641
aF0.0019043335642637894
aF0.0015996760368765558
aF0.0025831944626803307
aF0.001948770511255417
aF0.0021254848513036686
aF0.0017382969513167394
aF0.0041509932671759033
aF0.0020232673753335937
aF0.0019030770599602978
aF92.913938999176025
tp18
s(g2
F0.01
tp19
((lp20
F0.0065852187127877918
aF0.011870990885387345
aF0.013025874326971157
aF0.013925537093013538
aF0.016067452727606873
aF0.016765871556484763
aF0.019140627843888668
aF0.02259308968100017
aF0.022599813513160146
aF0.030427429969776362
aF8.1472058296203613
tp21
s(g2
F0.001
tp22
((lp23
F0.0024988656725446119
aF0.034334291350714703
aF0.033881571916159002
aF0.036061035492724047
aF0.041083374195836846
aF0.0380886766247523
aF0.036817679303141039
aF0.037916800720761867
aF0.039123268967210301
aF0.050829192170258192
aF7.3890891075134277
tp24
s(g6
F0.01
tp25
((lp26
F0.0025096500546195324
aF0.004545459536051036
aF0.014108300616511145
aF0.0030953711555682102
aF0.010021420116260789
aF0.0086699385074150617
aF0.0077154169709843833
aF0.0034033585113897101
aF0.0094293101274714707
aF0.006496833080267563
aF21.823370933532715
tp27
s(g2
F0.10000000000000001
tp28
((lp29
F0.0025981448562919741
aF0.0055663445639525487
aF0.0084050237404166596
aF0.0091918194314283292
aF0.012463761691813954
aF0.013734243934359841
aF0.017851225910044413
aF0.021303496709846992
aF0.020497232536817449
aF0.02596651231456858
aF13.644412994384766
tp30
s(g6
F0.10000000000000001
tp31
((lp32
F0.0024164187957481063
aF0.005076986329617051
aF0.017875992831117345
aF0.0022656563229634104
aF0.017661347211459861
aF0.0085208325840806544
aF0.0033315427836895996
aF0.004385577489882937
aF0.01620510446411769
aF0.0047988402142992359
aF44.942637920379639
tp33
s.