(dp1
(S'merge_during'
p2
F0.029999999999999999
tp3
((lp4
F0.0025524214226333849
aF0.0059394406417416301
aF0.011930797777959275
aF0.002046263867198569
aF0.0068666420340391214
aF0.007856993318393634
aF0.008945255052987643
aF0.0077516354958054321
aF0.0052960686180910472
aF0.011148876717954004
aF0.0019654782002269913
aF0.012833710535255788
aF0.0022162063102049833
aF0.004575942549696628
aF0.018336857660069594
aF0.003506235900473797
aF0.0019754770747997296
aF0.018002722908466717
aF0.0052230219866327776
aF0.013869305456058557
aF0.0045504491922801933
aF0.012453857886315386
aF0.0056909869649680242
aF0.0054297628538065214
aF0.0055064237543879114
aF0.0074551053580324163
aF0.0042773388248146327
aF0.0091194847588836041
aF0.018132559575197695
aF0.0077981591624495441
aF0.0050829078962683913
aF0.0081823742833392419
aF0.0073914980355165799
aF0.0066013014422010219
aF0.0074427832767534827
aF0.0036694469323113985
aF0.0062207207168151341
aF0.0051094687622331167
aF0.0059940773310857868
aF0.0040897789791963504
aF198.51275515556335
tp5
s(g2
F0.02
tp6
((lp7
F0.0030753078856267805
aF0.0038047138530926008
aF0.016482338308584706
aF0.0029551132622419119
aF0.0093436371535355767
aF0.0082561399170277012
aF0.0032628611403111374
aF0.0050371873240513529
aF0.012071820021558358
aF0.0049349351152175955
aF0.013087716633643446
aF0.003181473445055033
aF0.0043716725732648462
aF0.017535717507555358
aF0.0036615126544175462
aF0.0018757544968447085
aF0.0038596173214101213
aF0.018506979150324145
aF0.0051091729443310183
aF0.016697767064596615
aF0.0082484451637569595
aF0.005394705822559168
aF0.0070014790159355703
aF0.0050980222318305667
aF0.0051992784164353939
aF0.0058718243638711653
aF0.00475736827290994
aF0.012149739981965297
aF0.015389981962230499
aF0.009653669208225588
aF0.005696810081464037
aF0.0055394686401852135
aF0.0050807888828928996
aF0.0082222056985335953
aF0.0045600132928914107
aF0.0056428324787993452
aF0.0086369226693847976
aF0.004775574564310916
aF0.0059451492168034348
aF0.0060756936196048102
aF193.19964289665222
tp8
s(S'merge_after'
p9
F0.01
tp10
((lp11
F0.0024033219279448268
aF0.011680244190878968
aF0.013291540835491122
aF0.013777507804471026
aF0.016447041194204499
aF0.017294422185770771
aF0.019049399923621275
aF0.022732788930126674
aF0.021025710051401528
aF0.028530067971311732
aF0.028824221451520082
aF0.035792800954163505
aF0.037075137665339583
aF0.041558083014323809
aF0.042223486445980292
aF0.047155705853160229
aF0.047673527826682535
aF0.052990408201419877
aF0.05563975423024848
aF0.058331003088502302
aF0.061760062290143136
aF0.066101722780125438
aF0.074955564705461858
aF0.076579310905542097
aF0.08770402374490209
aF0.096850670258157481
aF0.094481420806303562
aF0.10093398728558338
aF0.097279342751269468
aF0.10364288290506345
aF0.10409779190762669
aF0.10746001941047147
aF0.10676538543942879
aF0.10761534401119706
aF0.11047068222483702
aF0.1109418531480377
aF0.11468072201111427
aF0.11205575139370817
aF0.11454470588156258
aF0.11302197579467334
aF32.340434074401855
tp12
s(g9
F0.02
tp13
((lp14
F0.0025193507538725929
aF0.0087925166500413942
aF0.010711735659375872
aF0.011710790826351911
aF0.014224007581654836
aF0.015339832394736066
aF0.018325409445952817
aF0.020302420913042619
aF0.021051442663227206
aF0.026800479108451101
aF0.02870318406343688
aF0.034674841714635821
aF0.037484242544954617
aF0.0425213039493526
aF0.040718311658361726
aF0.045559027100893393
aF0.047581732821946034
aF0.052041946181883944
aF0.056355641969070468
aF0.060243631794836536
aF0.067668993880135669
aF0.066577550646068184
aF0.073591084339088855
aF0.076352602461923713
aF0.087169070890899966
aF0.094224171770223478
aF0.091976575740017955
aF0.10304305891963059
aF0.096290275768071934
aF0.10304029192819777
aF0.10188156393150315
aF0.10738851538810551
aF0.10651484170013066
aF0.10544278935348221
aF0.10800270231152249
aF0.10557735203966732
aF0.11254985166806745
aF0.11428415720901586
aF0.11475982707990692
aF0.11271480912936835
aF31.881861925125122
tp15
s(g2
F0.01
tp16
((lp17
F0.0024171330773402034
aF0.0061380890883744954
aF0.012819878731164167
aF0.0018474170506835603
aF0.0091799656665423508
aF0.010246556118952036
aF0.0073025903772025273
aF0.0029401477941328399
aF0.0097211688666556106
aF0.0075307086676695001
aF0.01034433298803146
aF0.0067439342021558442
aF0.006415528644671915
aF0.0067353562040103083
aF0.0046236802950646756
aF0.0043702892997906119
aF0.0052248480113291067
aF0.0049154775416330263
aF0.0072988931239282781
aF0.010318605231967728
aF0.0089996908085753832
aF0.0037725212949125952
aF0.0042001163034365201
aF0.0047368153607509232
aF0.0084548990908468128
aF0.0043605286217337901
aF0.0059459366331947794
aF0.008329750945840788
aF0.01786814054274766
aF0.00667487502818388
aF0.0067162133965810505
aF0.006478230584007252
aF0.0057616113901173402
aF0.0054777762387271797
aF0.0076223726187250387
aF0.0056175346900203911
aF0.0055706245625518191
aF0.0056036686321571643
aF0.0055176576132973517
aF0.0045629488094294677
aF186.69497203826904
tp18
s(g2
F0.040000000000000001
tp19
((lp20
F0.0024202715127476025
aF0.0051318163044012368
aF0.015344536524235113
aF0.0018839413071641768
aF0.0047448133258323685
aF0.0093782824877417775
aF0.0069850852658790707
aF0.014004742963434916
aF0.005392453944326206
aF0.0052570080502138536
aF0.013379236788380747
aF0.0032794850882436485
aF0.0060989449520407702
aF0.0053901812276571171
aF0.016913323467308738
aF0.0037940285088516536
aF0.0026038609878999957
aF0.0067413570607995693
aF0.013574151609301508
aF0.005290908880136419
aF0.010905163453110272
aF0.0051904522042745625
aF0.0041707402238427959
aF0.0056739244979634651
aF0.0048636011217955324
aF0.0042622737918544566
aF0.0052976896957484636
aF0.012485857477436963
aF0.018551678839401335
aF0.0095107543443523797
aF0.0058822854962347765
aF0.007083865855440013
aF0.0046189787430025589
aF0.0093448257787033303
aF0.0045405144705325147
aF0.0093003963184945821
aF0.0045400584431400139
aF0.0031704618784442386
aF0.0041785130474729726
aF0.0064853426526865349
aF185.58270120620728
tp21
s(g9
F0.050000000000000003
tp22
((lp23
F0.0023812654427203916
aF0.007152715169012341
aF0.0089712455195171317
aF0.0098468118249932703
aF0.013144439243123448
aF0.014431093629261392
aF0.023780355839589606
aF0.019458811235443255
aF0.020138998807770505
aF0.027439625313799981
aF0.028072201144609003
aF0.033201080911793891
aF0.036558183153521162
aF0.043628197630566294
aF0.042537970503084138
aF0.048381141475648828
aF0.050664106865351305
aF0.051641110258371488
aF0.055875243542399047
aF0.062629189692043036
aF0.06588195645120111
aF0.06964826226103446
aF0.070967361608498911
aF0.075600724916875417
aF0.082837894344216886
aF0.095763791038509891
aF0.094584264774717888
aF0.10617234617133722
aF0.092964237825905974
aF0.104450419486543
aF0.10129569139967817
aF0.11282812231031246
aF0.10499850816018283
aF0.11031929751726754
aF0.11021855673860288
aF0.10755582314621739
aF0.11601211706638206
aF0.11051682545924982
aF0.11156808519562297
aF0.10511006058299277
aF31.468774080276489
tp24
s(g9
F0.040000000000000001
tp25
((lp26
F0.002498930771834195
aF0.006908774586161604
aF0.0090989564828409426
aF0.01019934762650801
aF0.013075101892024382
aF0.014863978537307082
aF0.01786517158617091
aF0.019703499602060165
aF0.020238599039911761
aF0.026689614596560239
aF0.026975355170239208
aF0.033913401909324639
aF0.037473180737183642
aF0.042467685177292581
aF0.040772289756617439
aF0.047046854194098146
aF0.047800051988390768
aF0.05212441381263401
aF0.053549453657548603
aF0.060372406302107239
aF0.061737034780959342
aF0.071002433465319342
aF0.071449453870018761
aF0.074902131241171219
aF0.083280542138499503
aF0.098433347521840589
aF0.089588242348714681
aF0.10631894699837399
aF0.10248761804959414
aF0.1116065757036739
aF0.10419078091624609
aF0.11298516524814155
aF0.11017287764475867
aF0.1102857037634164
aF0.10939792901795134
aF0.11562884360621421
aF0.11566129993527396
aF0.11563947238233002
aF0.11482528541005101
aF0.10897270674010369
aF36.881834030151367
tp27
s(g2
F0.050000000000000003
tp28
((lp29
F0.0024365950151919902
aF0.0069483844806223815
aF0.018168321755857673
aF0.0018803361087210676
aF0.004883897825594976
aF0.0053632684378476176
aF0.0042499243035765697
aF0.0063867339515873952
aF0.014085470213040784
aF0.0068551820256063092
aF0.0052540060793066345
aF0.015613646015655706
aF0.0020385156150295918
aF0.0039853072545452724
aF0.0036543889303041776
aF0.0038458265887662425
aF0.0098100970387545831
aF0.0097504190600703426
aF0.0067839651005024409
aF0.011930247272782073
aF0.0058337520492322426
aF0.0043939078517046676
aF0.0060834794025581129
aF0.0045047953875556575
aF0.0042025188075193714
aF0.0067718425051531859
aF0.0044267174478911098
aF0.010680992311508557
aF0.016043297141650599
aF0.006703952077123162
aF0.0085700099374878911
aF0.0041648505257219437
aF0.0078974097907255052
aF0.0057189525719960237
aF0.0082655591473022143
aF0.005558130905348335
aF0.0077292148840437573
aF0.0028691476390373442
aF0.0097197809488042269
aF0.0030136561118350334
aF186.38653707504272
tp30
s(g9
F0.029999999999999999
tp31
((lp32
F0.0024996517843039988
aF0.0074893389540319939
aF0.01067209577504488
aF0.010561322561805605
aF0.013540253812769562
aF0.014630389176289152
aF0.020458997913767641
aF0.019763984339264278
aF0.020875211516463252
aF0.026180691410780926
aF0.027022036601717106
aF0.032777319668793284
aF0.037895579569398687
aF0.040640299157097839
aF0.042198510218823114
aF0.047495294190911537
aF0.047729381509396755
aF0.055033910467070568
aF0.0548835931805505
aF0.059131970776879379
aF0.06167301285082772
aF0.067968061370855398
aF0.068661998206741112
aF0.080287638104711373
aF0.083001790063080241
aF0.096886984112067684
aF0.08939295856072231
aF0.097199389932971045
aF0.096994748118499924
aF0.10966140193266863
aF0.10072987299511714
aF0.10747601559016688
aF0.1062064595567804
aF0.10908157070020996
aF0.10617691655745046
aF0.10567832027333431
aF0.11237728022611343
aF0.1145260607582937
aF0.10975497970899521
aF0.10908852398343644
aF32.267811059951782
tp33
s.